; Function Attrs: nounwind uwtable
define internal ptr @H5O__attr_copy(ptr noundef %0, ptr noundef %1) #1 {
  %3 = load i8, ptr @H5O_init_g, align 1, !tbaa !3, !range !7, !noundef !8
  %4 = trunc nuw i8 %3 to i1
  %5 = load i8, ptr @H5_libterm_g, align 1, !range !7
  %6 = trunc nuw i8 %5 to i1
  %7 = xor i1 %6, true
  %8 = select i1 %4, i1 true, i1 %7
  br i1 %8, label %9, label %16, !prof !9

9:                                                ; preds = %2
  %10 = tail call ptr @H5A__copy(ptr noundef %1, ptr noundef %0) #12
  %11 = icmp eq ptr %10, null
  br i1 %11, label %12, label %16

12:                                               ; preds = %9
  %13 = load i64, ptr @H5E_ATTR_g, align 8, !tbaa !10
  %14 = load i64, ptr @H5E_CANTINIT_g, align 8, !tbaa !10
  %15 = tail call i32 (ptr, ptr, i32, i64, i64, ptr, ...) @H5E_printf_stack(ptr noundef nonnull @.str.1, ptr noundef nonnull @__func__.H5O__attr_copy, i32 noundef 442, i64 noundef %13, i64 noundef %14, ptr noundef nonnull @.str.35) #12
  br label %16

16:                                               ; preds = %12, %9, %2
  %.0 = phi ptr [ null, %12 ], [ %10, %9 ], [ null, %2 ]
  ret ptr %.0
}